target datalayout = "e-m:e-p270:32:32-p271:32:32-p272:64:64-i64:64-i128:128-f80:128-n8:16:32:64-S128"
target triple = "x86_64-pc-linux-gnu"

%struct.ggml_backend_buffer_i = type { ptr, ptr, ptr, ptr, ptr, ptr, ptr, ptr, ptr }
%struct.ggml_backend_buffer_type = type { %struct.ggml_backend_buffer_type_i, ptr, ptr }
%struct.ggml_backend_buffer_type_i = type { ptr, ptr, ptr, ptr, ptr, ptr }
%struct.ggml_backend_buffer = type { %struct.ggml_backend_buffer_i, ptr, ptr, i64, i32 }

; Function Attrs: mustprogress uwtable
define ptr @ggml_backend_buffer_init(ptr noundef %0, ptr noundef byval(%struct.ggml_backend_buffer_i) align 8 %1, ptr noundef %2, i64 noundef %3) #0 {
  %5 = alloca ptr, align 8
  %6 = alloca ptr, align 8
  %7 = alloca i64, align 8
  %8 = alloca ptr, align 8
  store ptr %0, ptr %5, align 8, !tbaa !3
  store ptr %2, ptr %6, align 8, !tbaa !15
  store i64 %3, ptr %7, align 8, !tbaa !12
  call void @llvm.lifetime.start.p0(i64 8, ptr %8) #15
  %9 = call noalias noundef nonnull ptr @_Znwm(i64 noundef 104) #16
  %10 = getelementptr inbounds nuw %struct.ggml_backend_buffer, ptr %9, i32 0, i32 0
  call void @llvm.memcpy.p0.p0.i64(ptr align 16 %10, ptr align 8 %1, i64 72, i1 false), !tbaa.struct !16
  %11 = getelementptr inbounds nuw %struct.ggml_backend_buffer, ptr %9, i32 0, i32 1
  %12 = load ptr, ptr %5, align 8, !tbaa !3
  store ptr %12, ptr %11, align 8, !tbaa !17
  %13 = getelementptr inbounds nuw %struct.ggml_backend_buffer, ptr %9, i32 0, i32 2
  %14 = load ptr, ptr %6, align 8, !tbaa !15
  store ptr %14, ptr %13, align 16, !tbaa !21
  %15 = getelementptr inbounds nuw %struct.ggml_backend_buffer, ptr %9, i32 0, i32 3
  %16 = load i64, ptr %7, align 8, !tbaa !12
  store i64 %16, ptr %15, align 8, !tbaa !22
  %17 = getelementptr inbounds nuw %struct.ggml_backend_buffer, ptr %9, i32 0, i32 4
  store i32 0, ptr %17, align 16, !tbaa !23
  store ptr %9, ptr %8, align 8, !tbaa !24
  %18 = load ptr, ptr %8, align 8, !tbaa !24
  call void @llvm.lifetime.end.p0(i64 8, ptr %8) #15
  ret ptr %18
}

; Function Attrs: mustprogress uwtable
define ptr @ggml_backend_buft_alloc_buffer(ptr noundef %0, i64 noundef %1) #0 {
  %3 = alloca ptr, align 8
  %4 = alloca ptr, align 8
  %5 = alloca i64, align 8
  %6 = alloca %struct.ggml_backend_buffer_i, align 8
  store ptr %0, ptr %4, align 8, !tbaa !3
  store i64 %1, ptr %5, align 8, !tbaa !12
  %7 = load i64, ptr %5, align 8, !tbaa !12
  %8 = icmp eq i64 %7, 0
  br i1 %8, label %9, label %12

9:                                                ; preds = %2
  %10 = load ptr, ptr %4, align 8, !tbaa !3
  call void @llvm.memset.p0.i64(ptr align 8 %6, i8 0, i64 72, i1 false)
  %11 = call ptr @ggml_backend_buffer_init(ptr noundef %10, ptr noundef byval(%struct.ggml_backend_buffer_i) align 8 %6, ptr noundef null, i64 noundef 0)
  store ptr %11, ptr %3, align 8
  br label %20

12:                                               ; preds = %2
  %13 = load ptr, ptr %4, align 8, !tbaa !3
  %14 = getelementptr inbounds nuw %struct.ggml_backend_buffer_type, ptr %13, i32 0, i32 0
  %15 = getelementptr inbounds nuw %struct.ggml_backend_buffer_type_i, ptr %14, i32 0, i32 1
  %16 = load ptr, ptr %15, align 8, !tbaa !14
  %17 = load ptr, ptr %4, align 8, !tbaa !3
  %18 = load i64, ptr %5, align 8, !tbaa !12
  %19 = call noundef ptr %16(ptr noundef %17, i64 noundef %18)
  store ptr %19, ptr %3, align 8
  br label %20

20:                                               ; preds = %12, %9
  %21 = load ptr, ptr %3, align 8
  ret ptr %21
}