; Function Attrs: mustprogress uwtable
define noundef ptr @ggml_backend_buft_alloc_buffer(ptr noundef %0, i64 noundef %1) local_unnamed_addr #0 {
  %3 = icmp eq i64 %1, 0
  br i1 %3, label %4, label %8

4:                                                ; preds = %2
  %5 = tail call noalias noundef nonnull dereferenceable(104) ptr @_Znwm(i64 noundef 104) #22
  tail call void @llvm.memset.p0.i64(ptr noundef nonnull align 16 dereferenceable(72) %5, i8 0, i64 72, i1 false)
  %6 = getelementptr inbounds nuw i8, ptr %5, i64 72
  store ptr %0, ptr %6, align 8, !tbaa !10
  %7 = getelementptr inbounds nuw i8, ptr %5, i64 80
  tail call void @llvm.memset.p0.i64(ptr noundef nonnull align 16 dereferenceable(20) %7, i8 0, i64 20, i1 false)
  br label %12

8:                                                ; preds = %2
  %9 = getelementptr inbounds nuw i8, ptr %0, i64 8
  %10 = load ptr, ptr %9, align 8, !tbaa !16
  %11 = tail call noundef ptr %10(ptr noundef %0, i64 noundef %1)
  br label %12

12:                                               ; preds = %8, %4
  %.0 = phi ptr [ %5, %4 ], [ %11, %8 ]
  ret ptr %.0
}